; Function Attrs: nounwind uwtable
define internal void @pgoutput_stream_commit(ptr noundef %0, ptr noundef %1, i64 noundef %2) #2 {
  %4 = alloca %struct.HASH_SEQ_STATUS, align 8
  tail call void @OutputPluginUpdateProgress(ptr noundef %0, i1 noundef zeroext false) #13
  tail call void @OutputPluginPrepareWrite(ptr noundef %0, i1 noundef zeroext true) #13
  %5 = getelementptr inbounds nuw i8, ptr %0, i64 256
  %6 = load ptr, ptr %5, align 8
  tail call void @logicalrep_write_stream_commit(ptr noundef %6, ptr noundef %1, i64 noundef %2) #13
  tail call void @OutputPluginWrite(ptr noundef %0, i1 noundef zeroext true) #13
  %7 = getelementptr inbounds nuw i8, ptr %1, i64 4
  %8 = load i32, ptr %7, align 4
  call void @llvm.lifetime.start.p0(i64 32, ptr nonnull %4) #13
  %9 = load ptr, ptr @RelationSyncCache, align 8
  call void @hash_seq_init(ptr noundef nonnull %4, ptr noundef %9) #13
  %10 = call ptr @hash_seq_search(ptr noundef nonnull %4) #13
  %.not23.i = icmp eq ptr %10, null
  br i1 %.not23.i, label %cleanup_rel_sync_cache.exit, label %.lr.ph24.split.us.i

.lr.ph24.split.us.i:                              ; preds = %3, %.critedge17.us.i
  %11 = phi ptr [ %19, %.critedge17.us.i ], [ %10, %3 ]
  %12 = getelementptr inbounds nuw i8, ptr %11, i64 16
  %13 = load ptr, ptr %12, align 8
  %.not15.us.i = icmp eq ptr %13, null
  br i1 %.not15.us.i, label %.critedge17.us.i, label %.lr.ph.us.i

14:                                               ; preds = %.lr.ph22.us.i, %18
  %indvars.iv32.i = phi i64 [ 0, %.lr.ph22.us.i ], [ %indvars.iv.next33.i, %18 ]
  %15 = getelementptr inbounds nuw %union.ListCell, ptr %27, i64 %indvars.iv32.i
  %16 = load i32, ptr %15, align 8
  %17 = icmp eq i32 %8, %16
  br i1 %17, label %.split.us25.i, label %18

18:                                               ; preds = %14
  %indvars.iv.next33.i = add nuw nsw i64 %indvars.iv32.i, 1
  %exitcond36.not.i = icmp eq i64 %indvars.iv.next33.i, %wide.trip.count35.i
  br i1 %exitcond36.not.i, label %.critedge17.us.i, label %14

.critedge17.us.i:                                 ; preds = %18, %.split.us25.i, %.lr.ph.us.i, %.lr.ph24.split.us.i
  %19 = call ptr @hash_seq_search(ptr noundef nonnull %4) #13
  %.not.us.i = icmp eq ptr %19, null
  br i1 %.not.us.i, label %cleanup_rel_sync_cache.exit, label %.lr.ph24.split.us.i, !llvm.loop !8

.lr.ph.us.i:                                      ; preds = %.lr.ph24.split.us.i
  %20 = getelementptr inbounds nuw i8, ptr %13, i64 4
  %21 = load i32, ptr %20, align 4
  %22 = icmp sgt i32 %21, 0
  br i1 %22, label %.lr.ph22.us.i, label %.critedge17.us.i

.split.us25.i:                                    ; preds = %14
  %23 = trunc nuw nsw i64 %indvars.iv32.i to i32
  %24 = getelementptr inbounds nuw i8, ptr %11, i64 5
  store i8 1, ptr %24, align 1
  %25 = call ptr @list_delete_nth_cell(ptr noundef nonnull %13, i32 noundef %23) #13
  store ptr %25, ptr %12, align 8
  br label %.critedge17.us.i

.lr.ph22.us.i:                                    ; preds = %.lr.ph.us.i
  %26 = getelementptr inbounds nuw i8, ptr %13, i64 16
  %27 = load ptr, ptr %26, align 8
  %wide.trip.count35.i = zext nneg i32 %21 to i64
  br label %14

cleanup_rel_sync_cache.exit:                      ; preds = %.critedge17.us.i, %3
  call void @llvm.lifetime.end.p0(i64 32, ptr nonnull %4) #13
  ret void
}